target datalayout = "e-m:e-p270:32:32-p271:32:32-p272:64:64-i64:64-i128:128-f80:128-n8:16:32:64-S128"
target triple = "x86_64-unknown-linux-gnu"

%struct.Packet = type { ptr, %union.anon.2, ptr, i32, i64, i32, i32, i32, i32, i8, i16, i16, i8 }
%union.anon.2 = type { ptr }
%struct.timeval = type { i64, i64 }

@trace_events_enabled_count = external global i32, align 4
@message_with_timestamp = external global i8, align 1
@qemu_loglevel = external global i32, align 4
@_TRACE_COLO_COMPARE_MAIN_DSTATE = external global i16, align 2
@.str.29 = private unnamed_addr constant [37 x i8] c"%d@%zu.%06zu:colo_compare_main : %s\0A\00", align 1
@.str.30 = private unnamed_addr constant [24 x i8] c"colo_compare_main : %s\0A\00", align 1
@.str.43 = private unnamed_addr constant [12 x i8] c"compare udp\00", align 1
@.str.44 = private unnamed_addr constant [43 x i8] c"UDP: payload size of packets are different\00", align 1
@.str.45 = private unnamed_addr constant [17 x i8] c"primary pkt size\00", align 1
@.str.46 = private unnamed_addr constant [19 x i8] c"Secondary pkt size\00", align 1
@_TRACE_COLO_COMPARE_UDP_MISCOMPARE_DSTATE = external global i16, align 2
@.str.47 = private unnamed_addr constant [52 x i8] c"%d@%zu.%06zu:colo_compare_udp_miscompare : %s = %d\0A\00", align 1
@.str.48 = private unnamed_addr constant [39 x i8] c"colo_compare_udp_miscompare : %s = %d\0A\00", align 1

; Function Attrs: nounwind sspstrong uwtable
define internal zeroext i1 @qemu_loglevel_mask(i32 noundef %mask) #0 {
entry:
  %mask.addr = alloca i32, align 4
  store i32 %mask, ptr %mask.addr, align 4
  %0 = load i32, ptr @qemu_loglevel, align 4
  %1 = load i32, ptr %mask.addr, align 4
  %and = and i32 %0, %1
  %cmp = icmp ne i32 %and, 0
  ret i1 %cmp
}

; Function Attrs: nounwind sspstrong uwtable
define internal void @_nocheck__trace_colo_compare_udp_miscompare(ptr noundef %sta, i32 noundef %size) #0 {
entry:
  %sta.addr = alloca ptr, align 8
  %size.addr = alloca i32, align 4
  %_now = alloca %struct.timeval, align 8
  store ptr %sta, ptr %sta.addr, align 8
  store i32 %size, ptr %size.addr, align 4
  %0 = load i32, ptr @trace_events_enabled_count, align 4
  %tobool = icmp ne i32 %0, 0
  %lnot = xor i1 %tobool, true
  %lnot1 = xor i1 %lnot, true
  %lnot.ext = zext i1 %lnot1 to i32
  %conv = sext i32 %lnot.ext to i64
  %tobool2 = icmp ne i64 %conv, 0
  br i1 %tobool2, label %land.lhs.true, label %if.end11

land.lhs.true:                                    ; preds = %entry
  %1 = load i16, ptr @_TRACE_COLO_COMPARE_UDP_MISCOMPARE_DSTATE, align 2
  %conv3 = zext i16 %1 to i32
  %tobool4 = icmp ne i32 %conv3, 0
  br i1 %tobool4, label %land.lhs.true5, label %if.end11

land.lhs.true5:                                   ; preds = %land.lhs.true
  %call = call zeroext i1 @qemu_loglevel_mask(i32 noundef 32768)
  br i1 %call, label %if.then, label %if.end11

if.then:                                          ; preds = %land.lhs.true5
  %2 = load i8, ptr @message_with_timestamp, align 1
  %tobool7 = trunc i8 %2 to i1
  br i1 %tobool7, label %if.then8, label %if.else

if.then8:                                         ; preds = %if.then
  %call9 = call i32 @gettimeofday(ptr noundef %_now, ptr noundef null) #15
  %call10 = call i32 @qemu_get_thread_id()
  %tv_sec = getelementptr inbounds %struct.timeval, ptr %_now, i32 0, i32 0
  %3 = load i64, ptr %tv_sec, align 8
  %tv_usec = getelementptr inbounds %struct.timeval, ptr %_now, i32 0, i32 1
  %4 = load i64, ptr %tv_usec, align 8
  %5 = load ptr, ptr %sta.addr, align 8
  %6 = load i32, ptr %size.addr, align 4
  call void (ptr, ...) @qemu_log(ptr noundef @.str.47, i32 noundef %call10, i64 noundef %3, i64 noundef %4, ptr noundef %5, i32 noundef %6)
  br label %if.end

if.else:                                          ; preds = %if.then
  %7 = load ptr, ptr %sta.addr, align 8
  %8 = load i32, ptr %size.addr, align 4
  call void (ptr, ...) @qemu_log(ptr noundef @.str.48, ptr noundef %7, i32 noundef %8)
  br label %if.end

if.end:                                           ; preds = %if.else, %if.then8
  br label %if.end11

if.end11:                                         ; preds = %if.end, %land.lhs.true5, %land.lhs.true, %entry
  ret void
}

; Function Attrs: nounwind sspstrong uwtable
define internal void @_nocheck__trace_colo_compare_main(ptr noundef %chr) #0 {
entry:
  %chr.addr = alloca ptr, align 8
  %_now = alloca %struct.timeval, align 8
  store ptr %chr, ptr %chr.addr, align 8
  %0 = load i32, ptr @trace_events_enabled_count, align 4
  %tobool = icmp ne i32 %0, 0
  %lnot = xor i1 %tobool, true
  %lnot1 = xor i1 %lnot, true
  %lnot.ext = zext i1 %lnot1 to i32
  %conv = sext i32 %lnot.ext to i64
  %tobool2 = icmp ne i64 %conv, 0
  br i1 %tobool2, label %land.lhs.true, label %if.end11

land.lhs.true:                                    ; preds = %entry
  %1 = load i16, ptr @_TRACE_COLO_COMPARE_MAIN_DSTATE, align 2
  %conv3 = zext i16 %1 to i32
  %tobool4 = icmp ne i32 %conv3, 0
  br i1 %tobool4, label %land.lhs.true5, label %if.end11

land.lhs.true5:                                   ; preds = %land.lhs.true
  %call = call zeroext i1 @qemu_loglevel_mask(i32 noundef 32768)
  br i1 %call, label %if.then, label %if.end11

if.then:                                          ; preds = %land.lhs.true5
  %2 = load i8, ptr @message_with_timestamp, align 1
  %tobool7 = trunc i8 %2 to i1
  br i1 %tobool7, label %if.then8, label %if.else

if.then8:                                         ; preds = %if.then
  %call9 = call i32 @gettimeofday(ptr noundef %_now, ptr noundef null) #15
  %call10 = call i32 @qemu_get_thread_id()
  %tv_sec = getelementptr inbounds %struct.timeval, ptr %_now, i32 0, i32 0
  %3 = load i64, ptr %tv_sec, align 8
  %tv_usec = getelementptr inbounds %struct.timeval, ptr %_now, i32 0, i32 1
  %4 = load i64, ptr %tv_usec, align 8
  %5 = load ptr, ptr %chr.addr, align 8
  call void (ptr, ...) @qemu_log(ptr noundef @.str.29, i32 noundef %call10, i64 noundef %3, i64 noundef %4, ptr noundef %5)
  br label %if.end

if.else:                                          ; preds = %if.then
  %6 = load ptr, ptr %chr.addr, align 8
  call void (ptr, ...) @qemu_log(ptr noundef @.str.30, ptr noundef %6)
  br label %if.end

if.end:                                           ; preds = %if.else, %if.then8
  br label %if.end11

if.end11:                                         ; preds = %if.end, %land.lhs.true5, %land.lhs.true, %entry
  ret void
}

; Function Attrs: nounwind sspstrong uwtable
define internal void @trace_colo_compare_udp_miscompare(ptr noundef %sta, i32 noundef %size) #0 {
entry:
  %sta.addr = alloca ptr, align 8
  %size.addr = alloca i32, align 4
  store ptr %sta, ptr %sta.addr, align 8
  store i32 %size, ptr %size.addr, align 4
  %0 = load ptr, ptr %sta.addr, align 8
  %1 = load i32, ptr %size.addr, align 4
  call void @_nocheck__trace_colo_compare_udp_miscompare(ptr noundef %0, i32 noundef %1)
  ret void
}

; Function Attrs: nounwind sspstrong uwtable
define internal void @trace_colo_compare_main(ptr noundef %chr) #0 {
entry:
  %chr.addr = alloca ptr, align 8
  store ptr %chr, ptr %chr.addr, align 8
  %0 = load ptr, ptr %chr.addr, align 8
  call void @_nocheck__trace_colo_compare_main(ptr noundef %0)
  ret void
}

; Function Attrs: nounwind sspstrong uwtable
define internal i32 @colo_packet_compare_udp(ptr noundef %spkt, ptr noundef %ppkt) #0 {
entry:
  %retval = alloca i32, align 4
  %spkt.addr = alloca ptr, align 8
  %ppkt.addr = alloca ptr, align 8
  %network_header_length = alloca i16, align 2
  %offset = alloca i16, align 2
  store ptr %spkt, ptr %spkt.addr, align 8
  store ptr %ppkt, ptr %ppkt.addr, align 8
  %0 = load ptr, ptr %ppkt.addr, align 8
  %1 = getelementptr inbounds %struct.Packet, ptr %0, i32 0, i32 1
  %2 = load ptr, ptr %1, align 8
  %bf.load = load i8, ptr %2, align 1
  %bf.clear = and i8 %bf.load, 15
  %conv = zext i8 %bf.clear to i32
  %shl = shl i32 %conv, 2
  %conv1 = trunc i32 %shl to i16
  store i16 %conv1, ptr %network_header_length, align 2
  %3 = load i16, ptr %network_header_length, align 2
  %conv2 = zext i16 %3 to i32
  %add = add i32 %conv2, 14
  %4 = load ptr, ptr %ppkt.addr, align 8
  %vnet_hdr_len = getelementptr inbounds %struct.Packet, ptr %4, i32 0, i32 5
  %5 = load i32, ptr %vnet_hdr_len, align 8
  %add3 = add i32 %add, %5
  %conv4 = trunc i32 %add3 to i16
  store i16 %conv4, ptr %offset, align 2
  call void @trace_colo_compare_main(ptr noundef @.str.43)
  %6 = load ptr, ptr %ppkt.addr, align 8
  %size = getelementptr inbounds %struct.Packet, ptr %6, i32 0, i32 3
  %7 = load i32, ptr %size, align 8
  %8 = load ptr, ptr %spkt.addr, align 8
  %size5 = getelementptr inbounds %struct.Packet, ptr %8, i32 0, i32 3
  %9 = load i32, ptr %size5, align 8
  %cmp = icmp ne i32 %7, %9
  br i1 %cmp, label %if.then, label %if.end

if.then:                                          ; preds = %entry
  call void @trace_colo_compare_main(ptr noundef @.str.44)
  store i32 -1, ptr %retval, align 4
  br label %return

if.end:                                           ; preds = %entry
  %10 = load ptr, ptr %ppkt.addr, align 8
  %11 = load ptr, ptr %spkt.addr, align 8
  %12 = load i16, ptr %offset, align 2
  %13 = load i16, ptr %offset, align 2
  %14 = load ptr, ptr %ppkt.addr, align 8
  %size7 = getelementptr inbounds %struct.Packet, ptr %14, i32 0, i32 3
  %15 = load i32, ptr %size7, align 8
  %16 = load i16, ptr %offset, align 2
  %conv8 = zext i16 %16 to i32
  %sub = sub i32 %15, %conv8
  %conv9 = trunc i32 %sub to i16
  %call = call i32 @colo_compare_packet_payload(ptr noundef %10, ptr noundef %11, i16 noundef zeroext %12, i16 noundef zeroext %13, i16 noundef zeroext %conv9)
  %tobool = icmp ne i32 %call, 0
  br i1 %tobool, label %if.then10, label %if.else

if.then10:                                        ; preds = %if.end
  %17 = load ptr, ptr %ppkt.addr, align 8
  %size11 = getelementptr inbounds %struct.Packet, ptr %17, i32 0, i32 3
  %18 = load i32, ptr %size11, align 8
  call void @trace_colo_compare_udp_miscompare(ptr noundef @.str.45, i32 noundef %18)
  %19 = load ptr, ptr %spkt.addr, align 8
  %size12 = getelementptr inbounds %struct.Packet, ptr %19, i32 0, i32 3
  %20 = load i32, ptr %size12, align 8
  call void @trace_colo_compare_udp_miscompare(ptr noundef @.str.46, i32 noundef %20)
  store i32 -1, ptr %retval, align 4
  br label %return

if.else:                                          ; preds = %if.end
  store i32 0, ptr %retval, align 4
  br label %return

return:                                           ; preds = %if.else, %if.then10, %if.then
  %21 = load i32, ptr %retval, align 4
  ret i32 %21
}