; Function Attrs: nounwind sspstrong uwtable
define internal range(i32 -1, 1) i32 @colo_packet_compare_udp(ptr noundef readonly captures(none) %spkt, ptr noundef readonly captures(none) %ppkt) #0 {
entry:
  %_now.i.i39 = alloca %struct.timeval, align 8
  %_now.i.i25 = alloca %struct.timeval, align 8
  %_now.i.i10 = alloca %struct.timeval, align 8
  %_now.i.i = alloca %struct.timeval, align 8
  %0 = getelementptr inbounds nuw i8, ptr %ppkt, i64 8
  %1 = load ptr, ptr %0, align 8
  %bf.load = load i8, ptr %1, align 1
  %vnet_hdr_len = getelementptr inbounds nuw i8, ptr %ppkt, i64 40
  %2 = load i32, ptr %vnet_hdr_len, align 8
  call void @llvm.lifetime.start.p0(i64 16, ptr nonnull %_now.i.i)
  %3 = load i32, ptr @trace_events_enabled_count, align 4
  %tobool.i.i = icmp ne i32 %3, 0
  %4 = load i16, ptr @_TRACE_COLO_COMPARE_MAIN_DSTATE, align 2
  %tobool4.i.i = icmp ne i16 %4, 0
  %or.cond.i.i = select i1 %tobool.i.i, i1 %tobool4.i.i, i1 false
  br i1 %or.cond.i.i, label %land.lhs.true5.i.i, label %trace_colo_compare_main.exit

land.lhs.true5.i.i:                               ; preds = %entry
  %5 = load i32, ptr @qemu_loglevel, align 4
  %and.i.i.i = and i32 %5, 32768
  %cmp.i.not.i.i = icmp eq i32 %and.i.i.i, 0
  br i1 %cmp.i.not.i.i, label %trace_colo_compare_main.exit, label %if.then.i.i

if.then.i.i:                                      ; preds = %land.lhs.true5.i.i
  %6 = load i8, ptr @message_with_timestamp, align 1
  %tobool7.i.i = trunc i8 %6 to i1
  br i1 %tobool7.i.i, label %if.then8.i.i, label %if.else.i.i

if.then8.i.i:                                     ; preds = %if.then.i.i
  %call9.i.i = call i32 @gettimeofday(ptr noundef nonnull %_now.i.i, ptr noundef null) #16
  %call10.i.i = tail call i32 @qemu_get_thread_id() #16
  %7 = load i64, ptr %_now.i.i, align 8
  %tv_usec.i.i = getelementptr inbounds nuw i8, ptr %_now.i.i, i64 8
  %8 = load i64, ptr %tv_usec.i.i, align 8
  tail call void (ptr, ...) @qemu_log(ptr noundef nonnull @.str.29, i32 noundef %call10.i.i, i64 noundef %7, i64 noundef %8, ptr noundef nonnull @.str.43) #16
  br label %trace_colo_compare_main.exit

if.else.i.i:                                      ; preds = %if.then.i.i
  tail call void (ptr, ...) @qemu_log(ptr noundef nonnull @.str.30, ptr noundef nonnull @.str.43) #16
  br label %trace_colo_compare_main.exit

trace_colo_compare_main.exit:                     ; preds = %entry, %land.lhs.true5.i.i, %if.then8.i.i, %if.else.i.i
  call void @llvm.lifetime.end.p0(i64 16, ptr nonnull %_now.i.i)
  %size = getelementptr inbounds nuw i8, ptr %ppkt, i64 24
  %9 = load i32, ptr %size, align 8
  %size5 = getelementptr inbounds nuw i8, ptr %spkt, i64 24
  %10 = load i32, ptr %size5, align 8
  %cmp.not = icmp eq i32 %9, %10
  br i1 %cmp.not, label %if.end, label %if.then

if.then:                                          ; preds = %trace_colo_compare_main.exit
  call void @llvm.lifetime.start.p0(i64 16, ptr nonnull %_now.i.i10)
  %11 = load i32, ptr @trace_events_enabled_count, align 4
  %tobool.i.i11 = icmp ne i32 %11, 0
  %12 = load i16, ptr @_TRACE_COLO_COMPARE_MAIN_DSTATE, align 2
  %tobool4.i.i12 = icmp ne i16 %12, 0
  %or.cond.i.i13 = select i1 %tobool.i.i11, i1 %tobool4.i.i12, i1 false
  br i1 %or.cond.i.i13, label %land.lhs.true5.i.i14, label %trace_colo_compare_main.exit24

land.lhs.true5.i.i14:                             ; preds = %if.then
  %13 = load i32, ptr @qemu_loglevel, align 4
  %and.i.i.i15 = and i32 %13, 32768
  %cmp.i.not.i.i16 = icmp eq i32 %and.i.i.i15, 0
  br i1 %cmp.i.not.i.i16, label %trace_colo_compare_main.exit24, label %if.then.i.i17

if.then.i.i17:                                    ; preds = %land.lhs.true5.i.i14
  %14 = load i8, ptr @message_with_timestamp, align 1
  %tobool7.i.i18 = trunc i8 %14 to i1
  br i1 %tobool7.i.i18, label %if.then8.i.i20, label %if.else.i.i19

if.then8.i.i20:                                   ; preds = %if.then.i.i17
  %call9.i.i21 = call i32 @gettimeofday(ptr noundef nonnull %_now.i.i10, ptr noundef null) #16
  %call10.i.i22 = tail call i32 @qemu_get_thread_id() #16
  %15 = load i64, ptr %_now.i.i10, align 8
  %tv_usec.i.i23 = getelementptr inbounds nuw i8, ptr %_now.i.i10, i64 8
  %16 = load i64, ptr %tv_usec.i.i23, align 8
  tail call void (ptr, ...) @qemu_log(ptr noundef nonnull @.str.29, i32 noundef %call10.i.i22, i64 noundef %15, i64 noundef %16, ptr noundef nonnull @.str.44) #16
  br label %trace_colo_compare_main.exit24

if.else.i.i19:                                    ; preds = %if.then.i.i17
  tail call void (ptr, ...) @qemu_log(ptr noundef nonnull @.str.30, ptr noundef nonnull @.str.44) #16
  br label %trace_colo_compare_main.exit24

trace_colo_compare_main.exit24:                   ; preds = %if.then, %land.lhs.true5.i.i14, %if.then8.i.i20, %if.else.i.i19
  call void @llvm.lifetime.end.p0(i64 16, ptr nonnull %_now.i.i10)
  br label %return

if.end:                                           ; preds = %trace_colo_compare_main.exit
  %bf.clear = shl i8 %bf.load, 2
  %17 = and i8 %bf.clear, 60
  %narrow = add nuw nsw i8 %17, 14
  %add = zext nneg i8 %narrow to i32
  %add3 = add i32 %2, %add
  %conv4 = trunc i32 %add3 to i16
  %sub = sub i32 %9, %add3
  %conv9 = trunc i32 %sub to i16
  %call = tail call fastcc i32 @colo_compare_packet_payload(ptr noundef nonnull %ppkt, ptr noundef nonnull %spkt, i16 noundef zeroext %conv4, i16 noundef zeroext %conv4, i16 noundef zeroext %conv9)
  %tobool.not = icmp eq i32 %call, 0
  br i1 %tobool.not, label %return, label %if.then10

if.then10:                                        ; preds = %if.end
  %18 = load i32, ptr %size, align 8
  call void @llvm.lifetime.start.p0(i64 16, ptr nonnull %_now.i.i25)
  %19 = load i32, ptr @trace_events_enabled_count, align 4
  %tobool.i.i26 = icmp ne i32 %19, 0
  %20 = load i16, ptr @_TRACE_COLO_COMPARE_UDP_MISCOMPARE_DSTATE, align 2
  %tobool4.i.i27 = icmp ne i16 %20, 0
  %or.cond.i.i28 = select i1 %tobool.i.i26, i1 %tobool4.i.i27, i1 false
  br i1 %or.cond.i.i28, label %land.lhs.true5.i.i29, label %trace_colo_compare_udp_miscompare.exit

land.lhs.true5.i.i29:                             ; preds = %if.then10
  %21 = load i32, ptr @qemu_loglevel, align 4
  %and.i.i.i30 = and i32 %21, 32768
  %cmp.i.not.i.i31 = icmp eq i32 %and.i.i.i30, 0
  br i1 %cmp.i.not.i.i31, label %trace_colo_compare_udp_miscompare.exit, label %if.then.i.i32

if.then.i.i32:                                    ; preds = %land.lhs.true5.i.i29
  %22 = load i8, ptr @message_with_timestamp, align 1
  %tobool7.i.i33 = trunc i8 %22 to i1
  br i1 %tobool7.i.i33, label %if.then8.i.i35, label %if.else.i.i34

if.then8.i.i35:                                   ; preds = %if.then.i.i32
  %call9.i.i36 = call i32 @gettimeofday(ptr noundef nonnull %_now.i.i25, ptr noundef null) #16
  %call10.i.i37 = tail call i32 @qemu_get_thread_id() #16
  %23 = load i64, ptr %_now.i.i25, align 8
  %tv_usec.i.i38 = getelementptr inbounds nuw i8, ptr %_now.i.i25, i64 8
  %24 = load i64, ptr %tv_usec.i.i38, align 8
  tail call void (ptr, ...) @qemu_log(ptr noundef nonnull @.str.47, i32 noundef %call10.i.i37, i64 noundef %23, i64 noundef %24, ptr noundef nonnull @.str.45, i32 noundef %18) #16
  br label %trace_colo_compare_udp_miscompare.exit

if.else.i.i34:                                    ; preds = %if.then.i.i32
  tail call void (ptr, ...) @qemu_log(ptr noundef nonnull @.str.48, ptr noundef nonnull @.str.45, i32 noundef %18) #16
  br label %trace_colo_compare_udp_miscompare.exit

trace_colo_compare_udp_miscompare.exit:           ; preds = %if.then10, %land.lhs.true5.i.i29, %if.then8.i.i35, %if.else.i.i34
  call void @llvm.lifetime.end.p0(i64 16, ptr nonnull %_now.i.i25)
  %25 = load i32, ptr %size5, align 8
  call void @llvm.lifetime.start.p0(i64 16, ptr nonnull %_now.i.i39)
  %26 = load i32, ptr @trace_events_enabled_count, align 4
  %tobool.i.i40 = icmp ne i32 %26, 0
  %27 = load i16, ptr @_TRACE_COLO_COMPARE_UDP_MISCOMPARE_DSTATE, align 2
  %tobool4.i.i41 = icmp ne i16 %27, 0
  %or.cond.i.i42 = select i1 %tobool.i.i40, i1 %tobool4.i.i41, i1 false
  br i1 %or.cond.i.i42, label %land.lhs.true5.i.i43, label %trace_colo_compare_udp_miscompare.exit53

land.lhs.true5.i.i43:                             ; preds = %trace_colo_compare_udp_miscompare.exit
  %28 = load i32, ptr @qemu_loglevel, align 4
  %and.i.i.i44 = and i32 %28, 32768
  %cmp.i.not.i.i45 = icmp eq i32 %and.i.i.i44, 0
  br i1 %cmp.i.not.i.i45, label %trace_colo_compare_udp_miscompare.exit53, label %if.then.i.i46

if.then.i.i46:                                    ; preds = %land.lhs.true5.i.i43
  %29 = load i8, ptr @message_with_timestamp, align 1
  %tobool7.i.i47 = trunc i8 %29 to i1
  br i1 %tobool7.i.i47, label %if.then8.i.i49, label %if.else.i.i48

if.then8.i.i49:                                   ; preds = %if.then.i.i46
  %call9.i.i50 = call i32 @gettimeofday(ptr noundef nonnull %_now.i.i39, ptr noundef null) #16
  %call10.i.i51 = tail call i32 @qemu_get_thread_id() #16
  %30 = load i64, ptr %_now.i.i39, align 8
  %tv_usec.i.i52 = getelementptr inbounds nuw i8, ptr %_now.i.i39, i64 8
  %31 = load i64, ptr %tv_usec.i.i52, align 8
  tail call void (ptr, ...) @qemu_log(ptr noundef nonnull @.str.47, i32 noundef %call10.i.i51, i64 noundef %30, i64 noundef %31, ptr noundef nonnull @.str.46, i32 noundef %25) #16
  br label %trace_colo_compare_udp_miscompare.exit53

if.else.i.i48:                                    ; preds = %if.then.i.i46
  tail call void (ptr, ...) @qemu_log(ptr noundef nonnull @.str.48, ptr noundef nonnull @.str.46, i32 noundef %25) #16
  br label %trace_colo_compare_udp_miscompare.exit53

trace_colo_compare_udp_miscompare.exit53:         ; preds = %trace_colo_compare_udp_miscompare.exit, %land.lhs.true5.i.i43, %if.then8.i.i49, %if.else.i.i48
  call void @llvm.lifetime.end.p0(i64 16, ptr nonnull %_now.i.i39)
  br label %return

return:                                           ; preds = %if.end, %trace_colo_compare_udp_miscompare.exit53, %trace_colo_compare_main.exit24
  %retval.0 = phi i32 [ -1, %trace_colo_compare_main.exit24 ], [ -1, %trace_colo_compare_udp_miscompare.exit53 ], [ 0, %if.end ]
  ret i32 %retval.0
}